target datalayout = "e-m:e-p270:32:32-p271:32:32-p272:64:64-i64:64-i128:128-f80:128-n8:16:32:64-S128"
target triple = "x86_64-pc-linux-gnu"

; Function Attrs: mustprogress nounwind uwtable
define noundef float @_ZN5faiss13fvec_Linf_refEPKfS1_m(ptr noundef %0, ptr noundef %1, i64 noundef %2) #0 {
  %4 = alloca ptr, align 8
  %5 = alloca ptr, align 8
  %6 = alloca i64, align 8
  %7 = alloca i64, align 8
  %8 = alloca float, align 4
  store ptr %0, ptr %4, align 8, !tbaa !4
  store ptr %1, ptr %5, align 8, !tbaa !4
  store i64 %2, ptr %6, align 8, !tbaa !9
  call void @llvm.lifetime.start.p0(i64 8, ptr %7) #13
  call void @llvm.lifetime.start.p0(i64 4, ptr %8) #13
  store float 0.000000e+00, ptr %8, align 4, !tbaa !11
  store i64 0, ptr %7, align 8, !tbaa !9
  br label %9

9:                                                ; preds = %29, %3
  %10 = load i64, ptr %7, align 8, !tbaa !9
  %11 = load i64, ptr %6, align 8, !tbaa !9
  %12 = icmp ult i64 %10, %11
  br i1 %12, label %13, label %32

13:                                               ; preds = %9
  %14 = load float, ptr %8, align 4, !tbaa !11
  %15 = fpext float %14 to double
  %16 = load ptr, ptr %4, align 8, !tbaa !4
  %17 = load i64, ptr %7, align 8, !tbaa !9
  %18 = getelementptr inbounds nuw float, ptr %16, i64 %17
  %19 = load float, ptr %18, align 4, !tbaa !11
  %20 = load ptr, ptr %5, align 8, !tbaa !4
  %21 = load i64, ptr %7, align 8, !tbaa !9
  %22 = getelementptr inbounds nuw float, ptr %20, i64 %21
  %23 = load float, ptr %22, align 4, !tbaa !11
  %24 = fsub float %19, %23
  %25 = fpext float %24 to double
  %26 = call double @llvm.fabs.f64(double %25)
  %27 = call double @llvm.maxnum.f64(double %15, double %26)
  %28 = fptrunc double %27 to float
  store float %28, ptr %8, align 4, !tbaa !11
  br label %29

29:                                               ; preds = %13
  %30 = load i64, ptr %7, align 8, !tbaa !9
  %31 = add i64 %30, 1
  store i64 %31, ptr %7, align 8, !tbaa !9
  br label %9, !llvm.loop !15

32:                                               ; preds = %9
  %33 = load float, ptr %8, align 4, !tbaa !11
  call void @llvm.lifetime.end.p0(i64 4, ptr %8) #13
  call void @llvm.lifetime.end.p0(i64 8, ptr %7) #13
  ret float %33
}

; Function Attrs: mustprogress nounwind uwtable
define noundef float @_ZN5faiss9fvec_LinfEPKfS1_m(ptr noundef %0, ptr noundef %1, i64 noundef %2) #0 {
  %4 = alloca ptr, align 8
  %5 = alloca ptr, align 8
  %6 = alloca i64, align 8
  store ptr %0, ptr %4, align 8, !tbaa !4
  store ptr %1, ptr %5, align 8, !tbaa !4
  store i64 %2, ptr %6, align 8, !tbaa !9
  %7 = load ptr, ptr %4, align 8, !tbaa !4
  %8 = load ptr, ptr %5, align 8, !tbaa !4
  %9 = load i64, ptr %6, align 8, !tbaa !9
  %10 = call noundef float @_ZN5faiss13fvec_Linf_refEPKfS1_m(ptr noundef %7, ptr noundef %8, i64 noundef %9)
  ret float %10
}