; Function Attrs: mustprogress nofree norecurse nosync nounwind willreturn memory(argmem: read) uwtable
define noundef float @_ZN5faiss9fvec_LinfEPKfS1_m(ptr noundef readonly captures(none) %0, ptr noundef readonly captures(none) %1, i64 noundef %2) local_unnamed_addr #0 {
  %.not.i = icmp eq i64 %2, 0
  br i1 %.not.i, label %_ZN5faiss13fvec_Linf_refEPKfS1_m.exit, label %.lr.ph.i

.lr.ph.i:                                         ; preds = %3, %.lr.ph.i
  %.010.i = phi float [ %10, %.lr.ph.i ], [ 0.000000e+00, %3 ]
  %.089.i = phi i64 [ %11, %.lr.ph.i ], [ 0, %3 ]
  %4 = getelementptr inbounds nuw float, ptr %0, i64 %.089.i
  %5 = load float, ptr %4, align 4, !tbaa !4
  %6 = getelementptr inbounds nuw float, ptr %1, i64 %.089.i
  %7 = load float, ptr %6, align 4, !tbaa !4
  %8 = fsub float %5, %7
  %9 = tail call float @llvm.fabs.f32(float %8)
  %10 = tail call float @llvm.maxnum.f32(float %.010.i, float %9)
  %11 = add nuw i64 %.089.i, 1
  %exitcond.not.i = icmp eq i64 %11, %2
  br i1 %exitcond.not.i, label %_ZN5faiss13fvec_Linf_refEPKfS1_m.exit, label %.lr.ph.i, !llvm.loop !10

_ZN5faiss13fvec_Linf_refEPKfS1_m.exit:            ; preds = %.lr.ph.i, %3
  %.0.lcssa.i = phi float [ 0.000000e+00, %3 ], [ %10, %.lr.ph.i ]
  ret float %.0.lcssa.i
}